; ModuleID = '39/903.c'
source_filename = "39/903.c"
target datalayout = "e-m:e-p270:32:32-p271:32:32-p272:64:64-i64:64-f80:128-n8:16:32:64-S128"
target triple = "x86_64-pc-linux-gnu"

%struct.stu = type { [25 x i8], i32, i32, i32, i32, i32, i32 }

@.str = private unnamed_addr constant [3 x i8] c"%d\00", align 1
@.str.1 = private unnamed_addr constant [18 x i8] c"%s %d %d %c %c %d\00", align 1
@.str.2 = private unnamed_addr constant [10 x i8] c"%s\0A%d\0A%lu\00", align 1

; Function Attrs: noinline nounwind uwtable
define dso_local i32 @main() #0 {
  %1 = alloca i32, align 4
  %2 = alloca i32, align 4
  %3 = alloca i32, align 4
  %4 = alloca i32, align 4
  %5 = alloca i32, align 4
  %6 = alloca i64, align 8
  %7 = alloca i8, align 1
  %8 = alloca i8, align 1
  %9 = alloca [100 x %struct.stu], align 16
  store i32 0, i32* %1, align 4
  store i32 0, i32* %4, align 4
  store i64 0, i64* %6, align 8
  %10 = call i32 (i8*, ...) @__isoc99_scanf(i8* getelementptr inbounds ([3 x i8], [3 x i8]* @.str, i64 0, i64 0), i32* %2)
  store i32 0, i32* %3, align 4
  br label %11

11:                                               ; preds = %66, %0
  %12 = load i32, i32* %3, align 4
  %13 = load i32, i32* %2, align 4
  %14 = icmp slt i32 %12, %13
  br i1 %14, label %15, label %69

15:                                               ; preds = %11
  %16 = load i32, i32* %3, align 4
  %17 = sext i32 %16 to i64
  %18 = getelementptr inbounds [100 x %struct.stu], [100 x %struct.stu]* %9, i64 0, i64 %17
  %19 = getelementptr inbounds %struct.stu, %struct.stu* %18, i32 0, i32 0
  %20 = getelementptr inbounds [25 x i8], [25 x i8]* %19, i64 0, i64 0
  %21 = load i32, i32* %3, align 4
  %22 = sext i32 %21 to i64
  %23 = getelementptr inbounds [100 x %struct.stu], [100 x %struct.stu]* %9, i64 0, i64 %22
  %24 = getelementptr inbounds %struct.stu, %struct.stu* %23, i32 0, i32 1
  %25 = load i32, i32* %3, align 4
  %26 = sext i32 %25 to i64
  %27 = getelementptr inbounds [100 x %struct.stu], [100 x %struct.stu]* %9, i64 0, i64 %26
  %28 = getelementptr inbounds %struct.stu, %struct.stu* %27, i32 0, i32 2
  %29 = load i32, i32* %3, align 4
  %30 = sext i32 %29 to i64
  %31 = getelementptr inbounds [100 x %struct.stu], [100 x %struct.stu]* %9, i64 0, i64 %30
  %32 = getelementptr inbounds %struct.stu, %struct.stu* %31, i32 0, i32 5
  %33 = call i32 (i8*, ...) @__isoc99_scanf(i8* getelementptr inbounds ([18 x i8], [18 x i8]* @.str.1, i64 0, i64 0), i8* %20, i32* %24, i32* %28, i8* %7, i8* %8, i32* %32)
  %34 = load i8, i8* %7, align 1
  %35 = sext i8 %34 to i32
  %36 = icmp eq i32 %35, 89
  br i1 %36, label %37, label %42

37:                                               ; preds = %15
  %38 = load i32, i32* %3, align 4
  %39 = sext i32 %38 to i64
  %40 = getelementptr inbounds [100 x %struct.stu], [100 x %struct.stu]* %9, i64 0, i64 %39
  %41 = getelementptr inbounds %struct.stu, %struct.stu* %40, i32 0, i32 3
  store i32 1, i32* %41, align 4
  br label %47

42:                                               ; preds = %15
  %43 = load i32, i32* %3, align 4
  %44 = sext i32 %43 to i64
  %45 = getelementptr inbounds [100 x %struct.stu], [100 x %struct.stu]* %9, i64 0, i64 %44
  %46 = getelementptr inbounds %struct.stu, %struct.stu* %45, i32 0, i32 3
  store i32 0, i32* %46, align 4
  br label %47

47:                                               ; preds = %42, %37
  %48 = load i8, i8* %8, align 1
  %49 = sext i8 %48 to i32
  %50 = icmp eq i32 %49, 89
  br i1 %50, label %51, label %56

51:                                               ; preds = %47
  %52 = load i32, i32* %3, align 4
  %53 = sext i32 %52 to i64
  %54 = getelementptr inbounds [100 x %struct.stu], [100 x %struct.stu]* %9, i64 0, i64 %53
  %55 = getelementptr inbounds %struct.stu, %struct.stu* %54, i32 0, i32 4
  store i32 1, i32* %55, align 4
  br label %61

56:                                               ; preds = %47
  %57 = load i32, i32* %3, align 4
  %58 = sext i32 %57 to i64
  %59 = getelementptr inbounds [100 x %struct.stu], [100 x %struct.stu]* %9, i64 0, i64 %58
  %60 = getelementptr inbounds %struct.stu, %struct.stu* %59, i32 0, i32 4
  store i32 0, i32* %60, align 4
  br label %61

61:                                               ; preds = %56, %51
  %62 = load i32, i32* %3, align 4
  %63 = sext i32 %62 to i64
  %64 = getelementptr inbounds [100 x %struct.stu], [100 x %struct.stu]* %9, i64 0, i64 %63
  %65 = getelementptr inbounds %struct.stu, %struct.stu* %64, i32 0, i32 6
  store i32 0, i32* %65, align 4
  br label %66

66:                                               ; preds = %61
  %67 = load i32, i32* %3, align 4
  %68 = add nsw i32 %67, 1
  store i32 %68, i32* %3, align 4
  br label %11

69:                                               ; preds = %11
  store i32 0, i32* %3, align 4
  br label %70

70:                                               ; preds = %196, %69
  %71 = load i32, i32* %3, align 4
  %72 = load i32, i32* %2, align 4
  %73 = icmp slt i32 %71, %72
  br i1 %73, label %74, label %199

74:                                               ; preds = %70
  %75 = load i32, i32* %3, align 4
  %76 = sext i32 %75 to i64
  %77 = getelementptr inbounds [100 x %struct.stu], [100 x %struct.stu]* %9, i64 0, i64 %76
  %78 = getelementptr inbounds %struct.stu, %struct.stu* %77, i32 0, i32 1
  %79 = load i32, i32* %78, align 4
  %80 = icmp sgt i32 %79, 80
  br i1 %80, label %81, label %95

81:                                               ; preds = %74
  %82 = load i32, i32* %3, align 4
  %83 = sext i32 %82 to i64
  %84 = getelementptr inbounds [100 x %struct.stu], [100 x %struct.stu]* %9, i64 0, i64 %83
  %85 = getelementptr inbounds %struct.stu, %struct.stu* %84, i32 0, i32 5
  %86 = load i32, i32* %85, align 4
  %87 = icmp sge i32 %86, 1
  br i1 %87, label %88, label %95

88:                                               ; preds = %81
  %89 = load i32, i32* %3, align 4
  %90 = sext i32 %89 to i64
  %91 = getelementptr inbounds [100 x %struct.stu], [100 x %struct.stu]* %9, i64 0, i64 %90
  %92 = getelementptr inbounds %struct.stu, %struct.stu* %91, i32 0, i32 6
  %93 = load i32, i32* %92, align 4
  %94 = add nsw i32 %93, 8000
  store i32 %94, i32* %92, align 4
  br label %95

95:                                               ; preds = %88, %81, %74
  %96 = load i32, i32* %3, align 4
  %97 = sext i32 %96 to i64
  %98 = getelementptr inbounds [100 x %struct.stu], [100 x %struct.stu]* %9, i64 0, i64 %97
  %99 = getelementptr inbounds %struct.stu, %struct.stu* %98, i32 0, i32 1
  %100 = load i32, i32* %99, align 4
  %101 = icmp sgt i32 %100, 85
  br i1 %101, label %102, label %116

102:                                              ; preds = %95
  %103 = load i32, i32* %3, align 4
  %104 = sext i32 %103 to i64
  %105 = getelementptr inbounds [100 x %struct.stu], [100 x %struct.stu]* %9, i64 0, i64 %104
  %106 = getelementptr inbounds %struct.stu, %struct.stu* %105, i32 0, i32 2
  %107 = load i32, i32* %106, align 4
  %108 = icmp sgt i32 %107, 80
  br i1 %108, label %109, label %116

109:                                              ; preds = %102
  %110 = load i32, i32* %3, align 4
  %111 = sext i32 %110 to i64
  %112 = getelementptr inbounds [100 x %struct.stu], [100 x %struct.stu]* %9, i64 0, i64 %111
  %113 = getelementptr inbounds %struct.stu, %struct.stu* %112, i32 0, i32 6
  %114 = load i32, i32* %113, align 4
  %115 = add nsw i32 %114, 4000
  store i32 %115, i32* %113, align 4
  br label %116

116:                                              ; preds = %109, %102, %95
  %117 = load i32, i32* %3, align 4
  %118 = sext i32 %117 to i64
  %119 = getelementptr inbounds [100 x %struct.stu], [100 x %struct.stu]* %9, i64 0, i64 %118
  %120 = getelementptr inbounds %struct.stu, %struct.stu* %119, i32 0, i32 1
  %121 = load i32, i32* %120, align 4
  %122 = icmp sgt i32 %121, 90
  br i1 %122, label %123, label %130

123:                                              ; preds = %116
  %124 = load i32, i32* %3, align 4
  %125 = sext i32 %124 to i64
  %126 = getelementptr inbounds [100 x %struct.stu], [100 x %struct.stu]* %9, i64 0, i64 %125
  %127 = getelementptr inbounds %struct.stu, %struct.stu* %126, i32 0, i32 6
  %128 = load i32, i32* %127, align 4
  %129 = add nsw i32 %128, 2000
  store i32 %129, i32* %127, align 4
  br label %130

130:                                              ; preds = %123, %116
  %131 = load i32, i32* %3, align 4
  %132 = sext i32 %131 to i64
  %133 = getelementptr inbounds [100 x %struct.stu], [100 x %struct.stu]* %9, i64 0, i64 %132
  %134 = getelementptr inbounds %struct.stu, %struct.stu* %133, i32 0, i32 1
  %135 = load i32, i32* %134, align 4
  %136 = icmp sgt i32 %135, 85
  br i1 %136, label %137, label %151

137:                                              ; preds = %130
  %138 = load i32, i32* %3, align 4
  %139 = sext i32 %138 to i64
  %140 = getelementptr inbounds [100 x %struct.stu], [100 x %struct.stu]* %9, i64 0, i64 %139
  %141 = getelementptr inbounds %struct.stu, %struct.stu* %140, i32 0, i32 4
  %142 = load i32, i32* %141, align 4
  %143 = icmp eq i32 %142, 1
  br i1 %143, label %144, label %151

144:                                              ; preds = %137
  %145 = load i32, i32* %3, align 4
  %146 = sext i32 %145 to i64
  %147 = getelementptr inbounds [100 x %struct.stu], [100 x %struct.stu]* %9, i64 0, i64 %146
  %148 = getelementptr inbounds %struct.stu, %struct.stu* %147, i32 0, i32 6
  %149 = load i32, i32* %148, align 4
  %150 = add nsw i32 %149, 1000
  store i32 %150, i32* %148, align 4
  br label %151

151:                                              ; preds = %144, %137, %130
  %152 = load i32, i32* %3, align 4
  %153 = sext i32 %152 to i64
  %154 = getelementptr inbounds [100 x %struct.stu], [100 x %struct.stu]* %9, i64 0, i64 %153
  %155 = getelementptr inbounds %struct.stu, %struct.stu* %154, i32 0, i32 2
  %156 = load i32, i32* %155, align 4
  %157 = icmp sgt i32 %156, 80
  br i1 %157, label %158, label %172

158:                                              ; preds = %151
  %159 = load i32, i32* %3, align 4
  %160 = sext i32 %159 to i64
  %161 = getelementptr inbounds [100 x %struct.stu], [100 x %struct.stu]* %9, i64 0, i64 %160
  %162 = getelementptr inbounds %struct.stu, %struct.stu* %161, i32 0, i32 3
  %163 = load i32, i32* %162, align 4
  %164 = icmp eq i32 %163, 1
  br i1 %164, label %165, label %172

165:                                              ; preds = %158
  %166 = load i32, i32* %3, align 4
  %167 = sext i32 %166 to i64
  %168 = getelementptr inbounds [100 x %struct.stu], [100 x %struct.stu]* %9, i64 0, i64 %167
  %169 = getelementptr inbounds %struct.stu, %struct.stu* %168, i32 0, i32 6
  %170 = load i32, i32* %169, align 4
  %171 = add nsw i32 %170, 850
  store i32 %171, i32* %169, align 4
  br label %172

172:                                              ; preds = %165, %158, %151
  %173 = load i32, i32* %3, align 4
  %174 = sext i32 %173 to i64
  %175 = getelementptr inbounds [100 x %struct.stu], [100 x %struct.stu]* %9, i64 0, i64 %174
  %176 = getelementptr inbounds %struct.stu, %struct.stu* %175, i32 0, i32 6
  %177 = load i32, i32* %176, align 4
  %178 = load i32, i32* %4, align 4
  %179 = icmp sgt i32 %177, %178
  br i1 %179, label %180, label %187

180:                                              ; preds = %172
  %181 = load i32, i32* %3, align 4
  %182 = sext i32 %181 to i64
  %183 = getelementptr inbounds [100 x %struct.stu], [100 x %struct.stu]* %9, i64 0, i64 %182
  %184 = getelementptr inbounds %struct.stu, %struct.stu* %183, i32 0, i32 6
  %185 = load i32, i32* %184, align 4
  store i32 %185, i32* %4, align 4
  %186 = load i32, i32* %3, align 4
  store i32 %186, i32* %5, align 4
  br label %187

187:                                              ; preds = %180, %172
  %188 = load i32, i32* %3, align 4
  %189 = sext i32 %188 to i64
  %190 = getelementptr inbounds [100 x %struct.stu], [100 x %struct.stu]* %9, i64 0, i64 %189
  %191 = getelementptr inbounds %struct.stu, %struct.stu* %190, i32 0, i32 6
  %192 = load i32, i32* %191, align 4
  %193 = sext i32 %192 to i64
  %194 = load i64, i64* %6, align 8
  %195 = add nsw i64 %194, %193
  store i64 %195, i64* %6, align 8
  br label %196

196:                                              ; preds = %187
  %197 = load i32, i32* %3, align 4
  %198 = add nsw i32 %197, 1
  store i32 %198, i32* %3, align 4
  br label %70

199:                                              ; preds = %70
  %200 = load i32, i32* %5, align 4
  %201 = sext i32 %200 to i64
  %202 = getelementptr inbounds [100 x %struct.stu], [100 x %struct.stu]* %9, i64 0, i64 %201
  %203 = getelementptr inbounds %struct.stu, %struct.stu* %202, i32 0, i32 0
  %204 = getelementptr inbounds [25 x i8], [25 x i8]* %203, i64 0, i64 0
  %205 = load i32, i32* %5, align 4
  %206 = sext i32 %205 to i64
  %207 = getelementptr inbounds [100 x %struct.stu], [100 x %struct.stu]* %9, i64 0, i64 %206
  %208 = getelementptr inbounds %struct.stu, %struct.stu* %207, i32 0, i32 6
  %209 = load i32, i32* %208, align 4
  %210 = load i64, i64* %6, align 8
  %211 = call i32 (i8*, ...) @printf(i8* getelementptr inbounds ([10 x i8], [10 x i8]* @.str.2, i64 0, i64 0), i8* %204, i32 %209, i64 %210)
  %212 = load i32, i32* %1, align 4
  ret i32 %212
}

declare dso_local i32 @__isoc99_scanf(i8*, ...) #1

declare dso_local i32 @printf(i8*, ...) #1


!llvm.module.flags = !{!0}
!llvm.ident = !{!1}

!0 = !{i32 1, !"wchar_size", i32 4}
!1 = !{!"clang version 10.0.0-4ubuntu1 "}
